target datalayout = "e-m:e-p270:32:32-p271:32:32-p272:64:64-i64:64-i128:128-f80:128-n8:16:32:64-S128"
target triple = "x86_64-pc-linux-gnu"

%struct.poly1305_state_internal_t = type { [2 x %struct.poly1305_power_t], %union.anon.0, i64, i64, [64 x i8] }
%struct.poly1305_power_t = type { %union.anon, %union.anon, %union.anon, %union.anon, %union.anon, %union.anon, %union.anon, %union.anon, %union.anon }
%union.anon = type { <2 x i64> }
%union.anon.0 = type { [5 x <2 x i64>] }

; Function Attrs: alwaysinline nounwind uwtable
define internal <2 x i64> @_mm_setzero_si128() #3 {
  %1 = alloca <2 x i64>, align 16
  store <2 x i64> zeroinitializer, ptr %1, align 16, !tbaa !17
  %2 = load <2 x i64>, ptr %1, align 16, !tbaa !17
  ret <2 x i64> %2
}

; Function Attrs: inlinehint nounwind uwtable
define internal ptr @poly1305_aligned_state(ptr noundef %0) #2 {
  %2 = alloca ptr, align 8
  store ptr %0, ptr %2, align 8, !tbaa !6
  %3 = load ptr, ptr %2, align 8, !tbaa !6
  %4 = ptrtoint ptr %3 to i64
  %5 = add i64 %4, 63
  %6 = and i64 %5, -64
  %7 = inttoptr i64 %6 to ptr
  ret ptr %7
}

; Function Attrs: nounwind uwtable
define hidden void @CRYPTO_poly1305_init(ptr noundef %0, ptr noundef %1) #0 {
  %3 = alloca ptr, align 8
  %4 = alloca ptr, align 8
  %5 = alloca ptr, align 8
  %6 = alloca ptr, align 8
  %7 = alloca i64, align 8
  %8 = alloca i64, align 8
  %9 = alloca i64, align 8
  %10 = alloca i64, align 8
  %11 = alloca i64, align 8
  store ptr %0, ptr %3, align 8, !tbaa !6
  store ptr %1, ptr %4, align 8, !tbaa !6
  call void @llvm.lifetime.start.p0(i64 8, ptr %5) #7
  %12 = load ptr, ptr %3, align 8, !tbaa !6
  %13 = call ptr @poly1305_aligned_state(ptr noundef %12)
  store ptr %13, ptr %5, align 8, !tbaa !11
  call void @llvm.lifetime.start.p0(i64 8, ptr %6) #7
  call void @llvm.lifetime.start.p0(i64 8, ptr %7) #7
  call void @llvm.lifetime.start.p0(i64 8, ptr %8) #7
  call void @llvm.lifetime.start.p0(i64 8, ptr %9) #7
  call void @llvm.lifetime.start.p0(i64 8, ptr %10) #7
  call void @llvm.lifetime.start.p0(i64 8, ptr %11) #7
  %14 = load ptr, ptr %4, align 8, !tbaa !6
  %15 = getelementptr inbounds i8, ptr %14, i64 0
  %16 = load i64, ptr %15, align 8, !tbaa !13
  store i64 %16, ptr %10, align 8, !tbaa !13
  %17 = load ptr, ptr %4, align 8, !tbaa !6
  %18 = getelementptr inbounds i8, ptr %17, i64 8
  %19 = load i64, ptr %18, align 8, !tbaa !13
  store i64 %19, ptr %11, align 8, !tbaa !13
  %20 = load i64, ptr %10, align 8, !tbaa !13
  %21 = and i64 %20, 17575274610687
  store i64 %21, ptr %7, align 8, !tbaa !13
  %22 = load i64, ptr %10, align 8, !tbaa !13
  %23 = lshr i64 %22, 44
  store i64 %23, ptr %10, align 8, !tbaa !13
  %24 = load i64, ptr %11, align 8, !tbaa !13
  %25 = shl i64 %24, 20
  %26 = load i64, ptr %10, align 8, !tbaa !13
  %27 = or i64 %26, %25
  store i64 %27, ptr %10, align 8, !tbaa !13
  %28 = load i64, ptr %10, align 8, !tbaa !13
  %29 = and i64 %28, 17592181915647
  store i64 %29, ptr %8, align 8, !tbaa !13
  %30 = load i64, ptr %11, align 8, !tbaa !13
  %31 = lshr i64 %30, 24
  store i64 %31, ptr %11, align 8, !tbaa !13
  %32 = load i64, ptr %11, align 8, !tbaa !13
  %33 = and i64 %32, 68719475727
  store i64 %33, ptr %9, align 8, !tbaa !13
  %34 = load ptr, ptr %5, align 8, !tbaa !11
  %35 = getelementptr inbounds nuw %struct.poly1305_state_internal_t, ptr %34, i32 0, i32 0
  %36 = getelementptr inbounds [2 x %struct.poly1305_power_t], ptr %35, i64 0, i64 1
  store ptr %36, ptr %6, align 8, !tbaa !15
  %37 = load i64, ptr %7, align 8, !tbaa !13
  %38 = trunc i64 %37 to i32
  %39 = load ptr, ptr %6, align 8, !tbaa !15
  %40 = getelementptr inbounds nuw %struct.poly1305_power_t, ptr %39, i32 0, i32 0
  %41 = getelementptr inbounds [4 x i32], ptr %40, i64 0, i64 1
  store i32 %38, ptr %41, align 4, !tbaa !17
  %42 = load i64, ptr %7, align 8, !tbaa !13
  %43 = lshr i64 %42, 32
  %44 = trunc i64 %43 to i32
  %45 = load ptr, ptr %6, align 8, !tbaa !15
  %46 = getelementptr inbounds nuw %struct.poly1305_power_t, ptr %45, i32 0, i32 0
  %47 = getelementptr inbounds [4 x i32], ptr %46, i64 0, i64 3
  store i32 %44, ptr %47, align 4, !tbaa !17
  %48 = load i64, ptr %8, align 8, !tbaa !13
  %49 = trunc i64 %48 to i32
  %50 = load ptr, ptr %6, align 8, !tbaa !15
  %51 = getelementptr inbounds nuw %struct.poly1305_power_t, ptr %50, i32 0, i32 1
  %52 = getelementptr inbounds [4 x i32], ptr %51, i64 0, i64 1
  store i32 %49, ptr %52, align 4, !tbaa !17
  %53 = load i64, ptr %8, align 8, !tbaa !13
  %54 = lshr i64 %53, 32
  %55 = trunc i64 %54 to i32
  %56 = load ptr, ptr %6, align 8, !tbaa !15
  %57 = getelementptr inbounds nuw %struct.poly1305_power_t, ptr %56, i32 0, i32 1
  %58 = getelementptr inbounds [4 x i32], ptr %57, i64 0, i64 3
  store i32 %55, ptr %58, align 4, !tbaa !17
  %59 = load i64, ptr %9, align 8, !tbaa !13
  %60 = trunc i64 %59 to i32
  %61 = load ptr, ptr %6, align 8, !tbaa !15
  %62 = getelementptr inbounds nuw %struct.poly1305_power_t, ptr %61, i32 0, i32 2
  %63 = getelementptr inbounds [4 x i32], ptr %62, i64 0, i64 1
  store i32 %60, ptr %63, align 4, !tbaa !17
  %64 = load i64, ptr %9, align 8, !tbaa !13
  %65 = lshr i64 %64, 32
  %66 = trunc i64 %65 to i32
  %67 = load ptr, ptr %6, align 8, !tbaa !15
  %68 = getelementptr inbounds nuw %struct.poly1305_power_t, ptr %67, i32 0, i32 2
  %69 = getelementptr inbounds [4 x i32], ptr %68, i64 0, i64 3
  store i32 %66, ptr %69, align 4, !tbaa !17
  %70 = load ptr, ptr %4, align 8, !tbaa !6
  %71 = getelementptr inbounds i8, ptr %70, i64 16
  %72 = load i32, ptr %71, align 4, !tbaa !18
  %73 = load ptr, ptr %6, align 8, !tbaa !15
  %74 = getelementptr inbounds nuw %struct.poly1305_power_t, ptr %73, i32 0, i32 3
  %75 = getelementptr inbounds [4 x i32], ptr %74, i64 0, i64 1
  store i32 %72, ptr %75, align 4, !tbaa !17
  %76 = load ptr, ptr %4, align 8, !tbaa !6
  %77 = getelementptr inbounds i8, ptr %76, i64 20
  %78 = load i32, ptr %77, align 4, !tbaa !18
  %79 = load ptr, ptr %6, align 8, !tbaa !15
  %80 = getelementptr inbounds nuw %struct.poly1305_power_t, ptr %79, i32 0, i32 3
  %81 = getelementptr inbounds [4 x i32], ptr %80, i64 0, i64 3
  store i32 %78, ptr %81, align 4, !tbaa !17
  %82 = load ptr, ptr %4, align 8, !tbaa !6
  %83 = getelementptr inbounds i8, ptr %82, i64 24
  %84 = load i32, ptr %83, align 4, !tbaa !18
  %85 = load ptr, ptr %6, align 8, !tbaa !15
  %86 = getelementptr inbounds nuw %struct.poly1305_power_t, ptr %85, i32 0, i32 4
  %87 = getelementptr inbounds [4 x i32], ptr %86, i64 0, i64 1
  store i32 %84, ptr %87, align 4, !tbaa !17
  %88 = load ptr, ptr %4, align 8, !tbaa !6
  %89 = getelementptr inbounds i8, ptr %88, i64 28
  %90 = load i32, ptr %89, align 4, !tbaa !18
  %91 = load ptr, ptr %6, align 8, !tbaa !15
  %92 = getelementptr inbounds nuw %struct.poly1305_power_t, ptr %91, i32 0, i32 4
  %93 = getelementptr inbounds [4 x i32], ptr %92, i64 0, i64 3
  store i32 %90, ptr %93, align 4, !tbaa !17
  %94 = call <2 x i64> @_mm_setzero_si128()
  %95 = load ptr, ptr %5, align 8, !tbaa !11
  %96 = getelementptr inbounds nuw %struct.poly1305_state_internal_t, ptr %95, i32 0, i32 1
  %97 = getelementptr inbounds [5 x <2 x i64>], ptr %96, i64 0, i64 0
  store <2 x i64> %94, ptr %97, align 16, !tbaa !17
  %98 = call <2 x i64> @_mm_setzero_si128()
  %99 = load ptr, ptr %5, align 8, !tbaa !11
  %100 = getelementptr inbounds nuw %struct.poly1305_state_internal_t, ptr %99, i32 0, i32 1
  %101 = getelementptr inbounds [5 x <2 x i64>], ptr %100, i64 0, i64 1
  store <2 x i64> %98, ptr %101, align 16, !tbaa !17
  %102 = call <2 x i64> @_mm_setzero_si128()
  %103 = load ptr, ptr %5, align 8, !tbaa !11
  %104 = getelementptr inbounds nuw %struct.poly1305_state_internal_t, ptr %103, i32 0, i32 1
  %105 = getelementptr inbounds [5 x <2 x i64>], ptr %104, i64 0, i64 2
  store <2 x i64> %102, ptr %105, align 16, !tbaa !17
  %106 = call <2 x i64> @_mm_setzero_si128()
  %107 = load ptr, ptr %5, align 8, !tbaa !11
  %108 = getelementptr inbounds nuw %struct.poly1305_state_internal_t, ptr %107, i32 0, i32 1
  %109 = getelementptr inbounds [5 x <2 x i64>], ptr %108, i64 0, i64 3
  store <2 x i64> %106, ptr %109, align 16, !tbaa !17
  %110 = call <2 x i64> @_mm_setzero_si128()
  %111 = load ptr, ptr %5, align 8, !tbaa !11
  %112 = getelementptr inbounds nuw %struct.poly1305_state_internal_t, ptr %111, i32 0, i32 1
  %113 = getelementptr inbounds [5 x <2 x i64>], ptr %112, i64 0, i64 4
  store <2 x i64> %110, ptr %113, align 16, !tbaa !17
  %114 = load ptr, ptr %5, align 8, !tbaa !11
  %115 = getelementptr inbounds nuw %struct.poly1305_state_internal_t, ptr %114, i32 0, i32 2
  store i64 0, ptr %115, align 16, !tbaa !20
  %116 = load ptr, ptr %5, align 8, !tbaa !11
  %117 = getelementptr inbounds nuw %struct.poly1305_state_internal_t, ptr %116, i32 0, i32 3
  store i64 0, ptr %117, align 8, !tbaa !22
  call void @llvm.lifetime.end.p0(i64 8, ptr %11) #7
  call void @llvm.lifetime.end.p0(i64 8, ptr %10) #7
  call void @llvm.lifetime.end.p0(i64 8, ptr %9) #7
  call void @llvm.lifetime.end.p0(i64 8, ptr %8) #7
  call void @llvm.lifetime.end.p0(i64 8, ptr %7) #7
  call void @llvm.lifetime.end.p0(i64 8, ptr %6) #7
  call void @llvm.lifetime.end.p0(i64 8, ptr %5) #7
  ret void
}