; Function Attrs: mustprogress nofree norecurse nosync nounwind willreturn memory(write, argmem: readwrite, inaccessiblemem: none) uwtable
define hidden void @CRYPTO_poly1305_init(ptr noundef %0, ptr noundef readonly captures(none) %1) local_unnamed_addr #0 {
  %3 = ptrtoint ptr %0 to i64
  %4 = add i64 %3, 63
  %5 = and i64 %4, -64
  %6 = inttoptr i64 %5 to ptr
  %7 = load i64, ptr %1, align 8, !tbaa !6
  %8 = getelementptr inbounds nuw i8, ptr %1, i64 8
  %9 = load i64, ptr %8, align 8, !tbaa !6
  %10 = and i64 %7, 17575274610687
  %11 = tail call i64 @llvm.fshl.i64(i64 %9, i64 %7, i64 20)
  %12 = and i64 %11, 17592181915647
  %13 = lshr i64 %9, 24
  %14 = and i64 %13, 68719475727
  %15 = trunc i64 %10 to i32
  %16 = getelementptr inbounds nuw i8, ptr %6, i64 148
  store i32 %15, ptr %16, align 4, !tbaa !10
  %17 = lshr i64 %10, 32
  %18 = trunc nuw nsw i64 %17 to i32
  %19 = getelementptr inbounds nuw i8, ptr %6, i64 156
  store i32 %18, ptr %19, align 4, !tbaa !10
  %20 = trunc i64 %12 to i32
  %21 = getelementptr inbounds nuw i8, ptr %6, i64 164
  store i32 %20, ptr %21, align 4, !tbaa !10
  %22 = lshr i64 %12, 32
  %23 = trunc nuw nsw i64 %22 to i32
  %24 = getelementptr inbounds nuw i8, ptr %6, i64 172
  store i32 %23, ptr %24, align 4, !tbaa !10
  %25 = trunc i64 %14 to i32
  %26 = getelementptr inbounds nuw i8, ptr %6, i64 180
  store i32 %25, ptr %26, align 4, !tbaa !10
  %27 = lshr i64 %14, 32
  %28 = trunc nuw nsw i64 %27 to i32
  %29 = getelementptr inbounds nuw i8, ptr %6, i64 188
  store i32 %28, ptr %29, align 4, !tbaa !10
  %30 = getelementptr inbounds nuw i8, ptr %1, i64 16
  %31 = load i32, ptr %30, align 4, !tbaa !11
  %32 = getelementptr inbounds nuw i8, ptr %6, i64 196
  store i32 %31, ptr %32, align 4, !tbaa !10
  %33 = getelementptr inbounds nuw i8, ptr %1, i64 20
  %34 = load i32, ptr %33, align 4, !tbaa !11
  %35 = getelementptr inbounds nuw i8, ptr %6, i64 204
  store i32 %34, ptr %35, align 4, !tbaa !10
  %36 = getelementptr inbounds nuw i8, ptr %1, i64 24
  %37 = load i32, ptr %36, align 4, !tbaa !11
  %38 = getelementptr inbounds nuw i8, ptr %6, i64 212
  store i32 %37, ptr %38, align 4, !tbaa !10
  %39 = getelementptr inbounds nuw i8, ptr %1, i64 28
  %40 = load i32, ptr %39, align 4, !tbaa !11
  %41 = getelementptr inbounds nuw i8, ptr %6, i64 220
  store i32 %40, ptr %41, align 4, !tbaa !10
  %42 = getelementptr inbounds nuw i8, ptr %6, i64 288
  tail call void @llvm.memset.p0.i64(ptr noundef nonnull align 32 dereferenceable(96) %42, i8 0, i64 96, i1 false)
  ret void
}